target datalayout = "e-m:e-p270:32:32-p271:32:32-p272:64:64-i64:64-i128:128-f80:128-n8:16:32:64-S128"
target triple = "x86_64-pc-linux-gnu"

%struct.lua_State = type { %struct.GCRef, i8, i8, i8, i8, %struct.MRef, %struct.GCRef, ptr, ptr, %struct.MRef, %struct.MRef, %struct.GCRef, %struct.GCRef, ptr, i32 }
%struct.MRef = type { i64 }
%struct.GCRef = type { i64 }
%union.TValue = type { i64 }
%struct.CTState = type { ptr, i32, i32, ptr, ptr, ptr, %struct.CCallback, [128 x i16] }
%struct.CCallback = type { [8 x %union.FPRCBArg], [8 x i64], ptr, ptr, ptr, i32, i32, i32 }
%union.FPRCBArg = type { double }
%struct.global_State = type { ptr, ptr, %struct.GCState, %struct.GCstr, i8, i8, i8, i8, %struct.StrInternState, i32, %struct.GCRef, %struct.SBuf, %union.TValue, %union.TValue, %struct.Node, %union.TValue, %struct.GCupval, i32, i32, ptr, ptr, ptr, i32, i32, %struct.GCRef, %struct.MRef, %struct.MRef, %struct.PRNGState, [39 x %struct.GCRef] }
%struct.GCState = type { i64, i64, i8, i8, i8, i8, i32, %struct.GCRef, %struct.MRef, %struct.GCRef, %struct.GCRef, %struct.GCRef, %struct.GCRef, i64, i64, i32, i32, %struct.MRef }
%struct.GCstr = type { %struct.GCRef, i8, i8, i8, i8, i32, i32, i32 }
%struct.StrInternState = type { ptr, i32, i32, i32, i8, i8, i8, i8, i64 }
%struct.SBuf = type { ptr, ptr, ptr, %struct.MRef }
%struct.Node = type { %union.TValue, %union.TValue, %struct.MRef }
%struct.GCupval = type { %struct.GCRef, i8, i8, i8, i8, %union.anon, %struct.MRef, i32 }
%union.anon = type { %struct.anon.1 }
%struct.anon.1 = type { %struct.GCRef, %struct.GCRef }
%struct.PRNGState = type { [4 x i64] }
%struct.CPState = type { i32, i32, %struct.CPValue, ptr, ptr, ptr, %struct.SBuf, ptr, ptr, ptr, ptr, i32, i32, i32, i32, [7 x i8], i8 }
%struct.CPValue = type { %union.anon.2, i32 }
%union.anon.2 = type { i32 }

; Function Attrs: alwaysinline nounwind uwtable
define internal ptr @ctype_cts(ptr noundef %0) #3 {
  %2 = alloca ptr, align 8
  %3 = alloca ptr, align 8
  store ptr %0, ptr %2, align 8, !tbaa !4
  call void @llvm.lifetime.start.p0(i64 8, ptr %3) #10
  %4 = load ptr, ptr %2, align 8, !tbaa !4
  %5 = getelementptr inbounds nuw %struct.lua_State, ptr %4, i32 0, i32 5
  %6 = getelementptr inbounds nuw %struct.MRef, ptr %5, i32 0, i32 0
  %7 = load i64, ptr %6, align 8, !tbaa !27
  %8 = inttoptr i64 %7 to ptr
  %9 = getelementptr inbounds nuw %struct.global_State, ptr %8, i32 0, i32 26
  %10 = getelementptr inbounds nuw %struct.MRef, ptr %9, i32 0, i32 0
  %11 = load i64, ptr %10, align 8, !tbaa !61
  %12 = inttoptr i64 %11 to ptr
  store ptr %12, ptr %3, align 8, !tbaa !9
  %13 = load ptr, ptr %2, align 8, !tbaa !4
  %14 = load ptr, ptr %3, align 8, !tbaa !9
  %15 = getelementptr inbounds nuw %struct.CTState, ptr %14, i32 0, i32 3
  store ptr %13, ptr %15, align 8, !tbaa !62
  %16 = load ptr, ptr %3, align 8, !tbaa !9
  call void @llvm.lifetime.end.p0(i64 8, ptr %3) #10
  ret ptr %16
}

; Function Attrs: nounwind uwtable
define internal i32 @lj_cf_ffi_cdef(ptr noundef %0) #0 {
  %2 = alloca ptr, align 8
  %3 = alloca ptr, align 8
  %4 = alloca %struct.CPState, align 8
  %5 = alloca i32, align 4
  store ptr %0, ptr %2, align 8, !tbaa !4
  call void @llvm.lifetime.start.p0(i64 8, ptr %3) #10
  %6 = load ptr, ptr %2, align 8, !tbaa !4
  %7 = call ptr @lj_lib_checkstr(ptr noundef %6, i32 noundef 1)
  store ptr %7, ptr %3, align 8, !tbaa !69
  call void @llvm.lifetime.start.p0(i64 128, ptr %4) #10
  call void @llvm.lifetime.start.p0(i64 4, ptr %5) #10
  %8 = load ptr, ptr %2, align 8, !tbaa !4
  %9 = getelementptr inbounds nuw %struct.CPState, ptr %4, i32 0, i32 7
  store ptr %8, ptr %9, align 8, !tbaa !71
  %10 = load ptr, ptr %2, align 8, !tbaa !4
  %11 = call ptr @ctype_cts(ptr noundef %10)
  %12 = getelementptr inbounds nuw %struct.CPState, ptr %4, i32 0, i32 8
  store ptr %11, ptr %12, align 8, !tbaa !74
  %13 = load ptr, ptr %3, align 8, !tbaa !69
  %14 = getelementptr inbounds %struct.GCstr, ptr %13, i64 1
  %15 = getelementptr inbounds nuw %struct.CPState, ptr %4, i32 0, i32 10
  store ptr %14, ptr %15, align 8, !tbaa !75
  %16 = load ptr, ptr %3, align 8, !tbaa !69
  %17 = getelementptr inbounds %struct.GCstr, ptr %16, i64 1
  %18 = getelementptr inbounds nuw %struct.CPState, ptr %4, i32 0, i32 5
  store ptr %17, ptr %18, align 8, !tbaa !76
  %19 = load ptr, ptr %2, align 8, !tbaa !4
  %20 = getelementptr inbounds nuw %struct.lua_State, ptr %19, i32 0, i32 7
  %21 = load ptr, ptr %20, align 8, !tbaa !37
  %22 = getelementptr inbounds %union.TValue, ptr %21, i64 1
  %23 = getelementptr inbounds nuw %struct.CPState, ptr %4, i32 0, i32 9
  store ptr %22, ptr %23, align 8, !tbaa !77
  %24 = getelementptr inbounds nuw %struct.CPState, ptr %4, i32 0, i32 14
  store i32 5, ptr %24, align 4, !tbaa !78
  %25 = call i32 @lj_cparse(ptr noundef %4)
  store i32 %25, ptr %5, align 4, !tbaa !34
  %26 = load i32, ptr %5, align 4, !tbaa !34
  %27 = icmp ne i32 %26, 0
  br i1 %27, label %28, label %31

28:                                               ; preds = %1
  %29 = load ptr, ptr %2, align 8, !tbaa !4
  %30 = load i32, ptr %5, align 4, !tbaa !34
  call void @lj_err_throw(ptr noundef %29, i32 noundef %30) #11
  unreachable

31:                                               ; preds = %1
  %32 = load ptr, ptr %2, align 8, !tbaa !4
  %33 = getelementptr inbounds nuw %struct.lua_State, ptr %32, i32 0, i32 5
  %34 = getelementptr inbounds nuw %struct.MRef, ptr %33, i32 0, i32 0
  %35 = load i64, ptr %34, align 8, !tbaa !27
  %36 = inttoptr i64 %35 to ptr
  %37 = getelementptr inbounds nuw %struct.global_State, ptr %36, i32 0, i32 2
  %38 = getelementptr inbounds nuw %struct.GCState, ptr %37, i32 0, i32 0
  %39 = load i64, ptr %38, align 8, !tbaa !39
  %40 = load ptr, ptr %2, align 8, !tbaa !4
  %41 = getelementptr inbounds nuw %struct.lua_State, ptr %40, i32 0, i32 5
  %42 = getelementptr inbounds nuw %struct.MRef, ptr %41, i32 0, i32 0
  %43 = load i64, ptr %42, align 8, !tbaa !27
  %44 = inttoptr i64 %43 to ptr
  %45 = getelementptr inbounds nuw %struct.global_State, ptr %44, i32 0, i32 2
  %46 = getelementptr inbounds nuw %struct.GCState, ptr %45, i32 0, i32 1
  %47 = load i64, ptr %46, align 8, !tbaa !49
  %48 = icmp uge i64 %39, %47
  %49 = xor i1 %48, true
  %50 = xor i1 %49, true
  %51 = zext i1 %50 to i32
  %52 = sext i32 %51 to i64
  %53 = call i64 @llvm.expect.i64(i64 %52, i64 0)
  %54 = icmp ne i64 %53, 0
  br i1 %54, label %55, label %58

55:                                               ; preds = %31
  %56 = load ptr, ptr %2, align 8, !tbaa !4
  %57 = call i32 @lj_gc_step(ptr noundef %56)
  br label %58

58:                                               ; preds = %55, %31
  call void @llvm.lifetime.end.p0(i64 4, ptr %5) #10
  call void @llvm.lifetime.end.p0(i64 128, ptr %4) #10
  call void @llvm.lifetime.end.p0(i64 8, ptr %3) #10
  ret i32 0
}