; Function Attrs: nounwind uwtable
define internal noundef i32 @lj_cf_ffi_cdef(ptr noundef %0) #0 {
  %2 = alloca %struct.CPState, align 8
  %3 = tail call ptr @lj_lib_checkstr(ptr noundef %0, i32 noundef 1) #9
  call void @llvm.lifetime.start.p0(i64 128, ptr nonnull %2) #9
  %4 = getelementptr inbounds nuw i8, ptr %2, i64 72
  store ptr %0, ptr %4, align 8, !tbaa !60
  %5 = getelementptr inbounds nuw i8, ptr %0, i64 16
  %6 = load i64, ptr %5, align 8, !tbaa !24
  %7 = inttoptr i64 %6 to ptr
  %8 = getelementptr inbounds nuw i8, ptr %7, i64 384
  %9 = load i64, ptr %8, align 8, !tbaa !41
  %10 = inttoptr i64 %9 to ptr
  %11 = getelementptr inbounds nuw i8, ptr %10, i64 16
  store ptr %0, ptr %11, align 8, !tbaa !42
  %12 = getelementptr inbounds nuw i8, ptr %2, i64 80
  store ptr %10, ptr %12, align 8, !tbaa !65
  %13 = getelementptr inbounds nuw i8, ptr %3, i64 24
  %14 = getelementptr inbounds nuw i8, ptr %2, i64 96
  store ptr %13, ptr %14, align 8, !tbaa !66
  %15 = getelementptr inbounds nuw i8, ptr %2, i64 32
  store ptr %13, ptr %15, align 8, !tbaa !67
  %16 = getelementptr inbounds nuw i8, ptr %0, i64 32
  %17 = load ptr, ptr %16, align 8, !tbaa !44
  %18 = getelementptr inbounds nuw i8, ptr %17, i64 8
  %19 = getelementptr inbounds nuw i8, ptr %2, i64 88
  store ptr %18, ptr %19, align 8, !tbaa !68
  %20 = getelementptr inbounds nuw i8, ptr %2, i64 116
  store i32 5, ptr %20, align 4, !tbaa !69
  %21 = call i32 @lj_cparse(ptr noundef nonnull %2) #9
  %.not = icmp eq i32 %21, 0
  br i1 %.not, label %23, label %22

22:                                               ; preds = %1
  call void @lj_err_throw(ptr noundef nonnull %0, i32 noundef %21) #10
  unreachable

23:                                               ; preds = %1
  %24 = load i64, ptr %5, align 8, !tbaa !24
  %25 = inttoptr i64 %24 to ptr
  %26 = getelementptr inbounds nuw i8, ptr %25, i64 16
  %27 = load i64, ptr %26, align 8, !tbaa !46
  %28 = getelementptr inbounds nuw i8, ptr %25, i64 24
  %29 = load i64, ptr %28, align 8, !tbaa !47
  %.not11 = icmp ult i64 %27, %29
  br i1 %.not11, label %32, label %30, !prof !27

30:                                               ; preds = %23
  %31 = call i32 @lj_gc_step(ptr noundef nonnull %0) #9
  br label %32

32:                                               ; preds = %30, %23
  call void @llvm.lifetime.end.p0(i64 128, ptr nonnull %2) #9
  ret i32 0
}